; ModuleID = '49/1403.cpp'
source_filename = "49/1403.cpp"
target datalayout = "e-m:e-p270:32:32-p271:32:32-p272:64:64-i64:64-f80:128-n8:16:32:64-S128"
target triple = "x86_64-pc-linux-gnu"

%"class.std::ios_base::Init" = type { i8 }
%"class.std::basic_istream" = type { i32 (...)**, i64, %"class.std::basic_ios" }
%"class.std::basic_ios" = type { %"class.std::ios_base", %"class.std::basic_ostream"*, i8, i8, %"class.std::basic_streambuf"*, %"class.std::ctype"*, %"class.std::num_put"*, %"class.std::num_get"* }
%"class.std::ios_base" = type { i32 (...)**, i64, i64, i32, i32, i32, %"struct.std::ios_base::_Callback_list"*, %"struct.std::ios_base::_Words", [8 x %"struct.std::ios_base::_Words"], i32, %"struct.std::ios_base::_Words"*, %"class.std::locale" }
%"struct.std::ios_base::_Callback_list" = type { %"struct.std::ios_base::_Callback_list"*, void (i32, %"class.std::ios_base"*, i32)*, i32, i32 }
%"struct.std::ios_base::_Words" = type { i8*, i64 }
%"class.std::locale" = type { %"class.std::locale::_Impl"* }
%"class.std::locale::_Impl" = type { i32, %"class.std::locale::facet"**, i64, %"class.std::locale::facet"**, i8** }
%"class.std::locale::facet" = type <{ i32 (...)**, i32, [4 x i8] }>
%"class.std::basic_ostream" = type { i32 (...)**, %"class.std::basic_ios" }
%"class.std::basic_streambuf" = type { i32 (...)**, i8*, i8*, i8*, i8*, i8*, i8*, %"class.std::locale" }
%"class.std::ctype" = type <{ %"class.std::locale::facet.base", [4 x i8], %struct.__locale_struct*, i8, [7 x i8], i32*, i32*, i16*, i8, [256 x i8], [256 x i8], i8, [6 x i8] }>
%"class.std::locale::facet.base" = type <{ i32 (...)**, i32 }>
%struct.__locale_struct = type { [13 x %struct.__locale_data*], i16*, i32*, i32*, [13 x i8*] }
%struct.__locale_data = type opaque
%"class.std::num_put" = type { %"class.std::locale::facet.base", [4 x i8] }
%"class.std::num_get" = type { %"class.std::locale::facet.base", [4 x i8] }

@_ZStL8__ioinit = internal global %"class.std::ios_base::Init" zeroinitializer, align 1
@__dso_handle = external hidden global i8
@_ZSt3cin = external dso_local global %"class.std::basic_istream", align 8
@_ZSt4cout = external dso_local global %"class.std::basic_ostream", align 8
@llvm.global_ctors = appending global [1 x { i32, void ()*, i8* }] [{ i32, void ()*, i8* } { i32 65535, void ()* @_GLOBAL__sub_I_1403.cpp, i8* null }]

; Function Attrs: noinline uwtable
define internal void @__cxx_global_var_init() #0 section ".text.startup" {
  call void @_ZNSt8ios_base4InitC1Ev(%"class.std::ios_base::Init"* @_ZStL8__ioinit)
  %1 = call i32 @__cxa_atexit(void (i8*)* bitcast (void (%"class.std::ios_base::Init"*)* @_ZNSt8ios_base4InitD1Ev to void (i8*)*), i8* getelementptr inbounds (%"class.std::ios_base::Init", %"class.std::ios_base::Init"* @_ZStL8__ioinit, i32 0, i32 0), i8* @__dso_handle) #3
  ret void
}

declare dso_local void @_ZNSt8ios_base4InitC1Ev(%"class.std::ios_base::Init"*) unnamed_addr #1

; Function Attrs: nounwind
declare dso_local void @_ZNSt8ios_base4InitD1Ev(%"class.std::ios_base::Init"*) unnamed_addr #2

; Function Attrs: nounwind
declare dso_local i32 @__cxa_atexit(void (i8*)*, i8*, i8*) #3

; Function Attrs: noinline norecurse uwtable
define dso_local i32 @main() #4 {
  %1 = alloca i32, align 4
  %2 = alloca [530 x i8], align 16
  %3 = alloca i32, align 4
  %4 = alloca i32, align 4
  %5 = alloca i32, align 4
  %6 = alloca i32, align 4
  %7 = alloca i32, align 4
  %8 = alloca i32, align 4
  store i32 0, i32* %1, align 4
  %9 = getelementptr inbounds [530 x i8], [530 x i8]* %2, i64 0, i64 0
  %10 = call dereferenceable(280) %"class.std::basic_istream"* @_ZStrsIcSt11char_traitsIcEERSt13basic_istreamIT_T0_ES6_PS3_(%"class.std::basic_istream"* dereferenceable(280) @_ZSt3cin, i8* %9)
  %11 = getelementptr inbounds [530 x i8], [530 x i8]* %2, i64 0, i64 0
  %12 = call i64 @strlen(i8* %11) #6
  %13 = trunc i64 %12 to i32
  store i32 %13, i32* %6, align 4
  store i32 2, i32* %5, align 4
  br label %14

14:                                               ; preds = %90, %0
  %15 = load i32, i32* %5, align 4
  %16 = load i32, i32* %6, align 4
  %17 = icmp sle i32 %15, %16
  br i1 %17, label %18, label %93

18:                                               ; preds = %14
  store i32 0, i32* %7, align 4
  br label %19

19:                                               ; preds = %86, %18
  %20 = load i32, i32* %7, align 4
  %21 = load i32, i32* %6, align 4
  %22 = icmp slt i32 %20, %21
  br i1 %22, label %23, label %89

23:                                               ; preds = %19
  %24 = load i32, i32* %7, align 4
  store i32 %24, i32* %3, align 4
  %25 = load i32, i32* %7, align 4
  %26 = load i32, i32* %5, align 4
  %27 = add nsw i32 %25, %26
  %28 = sub nsw i32 %27, 1
  store i32 %28, i32* %4, align 4
  br label %29

29:                                               ; preds = %46, %23
  %30 = load i32, i32* %3, align 4
  %31 = load i32, i32* %4, align 4
  %32 = icmp slt i32 %30, %31
  br i1 %32, label %33, label %51

33:                                               ; preds = %29
  %34 = load i32, i32* %3, align 4
  %35 = sext i32 %34 to i64
  %36 = getelementptr inbounds [530 x i8], [530 x i8]* %2, i64 0, i64 %35
  %37 = load i8, i8* %36, align 1
  %38 = sext i8 %37 to i32
  %39 = load i32, i32* %4, align 4
  %40 = sext i32 %39 to i64
  %41 = getelementptr inbounds [530 x i8], [530 x i8]* %2, i64 0, i64 %40
  %42 = load i8, i8* %41, align 1
  %43 = sext i8 %42 to i32
  %44 = icmp ne i32 %38, %43
  br i1 %44, label %45, label %46

45:                                               ; preds = %33
  br label %51

46:                                               ; preds = %33
  %47 = load i32, i32* %3, align 4
  %48 = add nsw i32 %47, 1
  store i32 %48, i32* %3, align 4
  %49 = load i32, i32* %4, align 4
  %50 = add nsw i32 %49, -1
  store i32 %50, i32* %4, align 4
  br label %29

51:                                               ; preds = %45, %29
  %52 = load i32, i32* %3, align 4
  %53 = load i32, i32* %4, align 4
  %54 = icmp eq i32 %52, %53
  br i1 %54, label %59, label %55

55:                                               ; preds = %51
  %56 = load i32, i32* %3, align 4
  %57 = load i32, i32* %4, align 4
  %58 = icmp sgt i32 %56, %57
  br i1 %58, label %59, label %85

59:                                               ; preds = %55, %51
  store i32 0, i32* %8, align 4
  br label %60

60:                                               ; preds = %73, %59
  %61 = load i32, i32* %8, align 4
  %62 = load i32, i32* %5, align 4
  %63 = sub nsw i32 %62, 1
  %64 = icmp slt i32 %61, %63
  br i1 %64, label %65, label %76

65:                                               ; preds = %60
  %66 = load i32, i32* %7, align 4
  %67 = load i32, i32* %8, align 4
  %68 = add nsw i32 %66, %67
  %69 = sext i32 %68 to i64
  %70 = getelementptr inbounds [530 x i8], [530 x i8]* %2, i64 0, i64 %69
  %71 = load i8, i8* %70, align 1
  %72 = call dereferenceable(272) %"class.std::basic_ostream"* @_ZStlsISt11char_traitsIcEERSt13basic_ostreamIcT_ES5_c(%"class.std::basic_ostream"* dereferenceable(272) @_ZSt4cout, i8 signext %71)
  br label %73

73:                                               ; preds = %65
  %74 = load i32, i32* %8, align 4
  %75 = add nsw i32 %74, 1
  store i32 %75, i32* %8, align 4
  br label %60

76:                                               ; preds = %60
  %77 = load i32, i32* %7, align 4
  %78 = load i32, i32* %8, align 4
  %79 = add nsw i32 %77, %78
  %80 = sext i32 %79 to i64
  %81 = getelementptr inbounds [530 x i8], [530 x i8]* %2, i64 0, i64 %80
  %82 = load i8, i8* %81, align 1
  %83 = call dereferenceable(272) %"class.std::basic_ostream"* @_ZStlsISt11char_traitsIcEERSt13basic_ostreamIcT_ES5_c(%"class.std::basic_ostream"* dereferenceable(272) @_ZSt4cout, i8 signext %82)
  %84 = call dereferenceable(272) %"class.std::basic_ostream"* @_ZNSolsEPFRSoS_E(%"class.std::basic_ostream"* %83, %"class.std::basic_ostream"* (%"class.std::basic_ostream"*)* @_ZSt4endlIcSt11char_traitsIcEERSt13basic_ostreamIT_T0_ES6_)
  br label %85

85:                                               ; preds = %76, %55
  br label %86

86:                                               ; preds = %85
  %87 = load i32, i32* %7, align 4
  %88 = add nsw i32 %87, 1
  store i32 %88, i32* %7, align 4
  br label %19

89:                                               ; preds = %19
  br label %90

90:                                               ; preds = %89
  %91 = load i32, i32* %5, align 4
  %92 = add nsw i32 %91, 1
  store i32 %92, i32* %5, align 4
  br label %14

93:                                               ; preds = %14
  ret i32 0
}

declare dso_local dereferenceable(280) %"class.std::basic_istream"* @_ZStrsIcSt11char_traitsIcEERSt13basic_istreamIT_T0_ES6_PS3_(%"class.std::basic_istream"* dereferenceable(280), i8*) #1

; Function Attrs: nounwind readonly
declare dso_local i64 @strlen(i8*) #5

declare dso_local dereferenceable(272) %"class.std::basic_ostream"* @_ZStlsISt11char_traitsIcEERSt13basic_ostreamIcT_ES5_c(%"class.std::basic_ostream"* dereferenceable(272), i8 signext) #1

declare dso_local dereferenceable(272) %"class.std::basic_ostream"* @_ZNSolsEPFRSoS_E(%"class.std::basic_ostream"*, %"class.std::basic_ostream"* (%"class.std::basic_ostream"*)*) #1

declare dso_local dereferenceable(272) %"class.std::basic_ostream"* @_ZSt4endlIcSt11char_traitsIcEERSt13basic_ostreamIT_T0_ES6_(%"class.std::basic_ostream"* dereferenceable(272)) #1

; Function Attrs: noinline uwtable
define internal void @_GLOBAL__sub_I_1403.cpp() #0 section ".text.startup" {
  call void @__cxx_global_var_init()
  ret void
}


!llvm.module.flags = !{!0}
!llvm.ident = !{!1}

!0 = !{i32 1, !"wchar_size", i32 4}
!1 = !{!"clang version 10.0.0-4ubuntu1 "}
