; ModuleID = 'source-C-CXX/48/1403.cpp'
source_filename = "source-C-CXX/48/1403.cpp"
target datalayout = "e-m:e-p270:32:32-p271:32:32-p272:64:64-i64:64-f80:128-n8:16:32:64-S128"
target triple = "x86_64-pc-linux-gnu"

%"class.std::ios_base::Init" = type { i8 }
%"class.std::basic_istream" = type { i32 (...)**, i64, %"class.std::basic_ios" }
%"class.std::basic_ios" = type { %"class.std::ios_base", %"class.std::basic_ostream"*, i8, i8, %"class.std::basic_streambuf"*, %"class.std::ctype"*, %"class.std::num_put"*, %"class.std::num_get"* }
%"class.std::ios_base" = type { i32 (...)**, i64, i64, i32, i32, i32, %"struct.std::ios_base::_Callback_list"*, %"struct.std::ios_base::_Words", [8 x %"struct.std::ios_base::_Words"], i32, %"struct.std::ios_base::_Words"*, %"class.std::locale" }
%"struct.std::ios_base::_Callback_list" = type { %"struct.std::ios_base::_Callback_list"*, void (i32, %"class.std::ios_base"*, i32)*, i32, i32 }
%"struct.std::ios_base::_Words" = type { i8*, i64 }
%"class.std::locale" = type { %"class.std::locale::_Impl"* }
%"class.std::locale::_Impl" = type { i32, %"class.std::locale::facet"**, i64, %"class.std::locale::facet"**, i8** }
%"class.std::locale::facet" = type <{ i32 (...)**, i32, [4 x i8] }>
%"class.std::basic_ostream" = type { i32 (...)**, %"class.std::basic_ios" }
%"class.std::basic_streambuf" = type { i32 (...)**, i8*, i8*, i8*, i8*, i8*, i8*, %"class.std::locale" }
%"class.std::ctype" = type <{ %"class.std::locale::facet.base", [4 x i8], %struct.__locale_struct*, i8, [7 x i8], i32*, i32*, i16*, i8, [256 x i8], [256 x i8], i8, [6 x i8] }>
%"class.std::locale::facet.base" = type <{ i32 (...)**, i32 }>
%struct.__locale_struct = type { [13 x %struct.__locale_data*], i16*, i32*, i32*, [13 x i8*] }
%struct.__locale_data = type opaque
%"class.std::num_put" = type { %"class.std::locale::facet.base", [4 x i8] }
%"class.std::num_get" = type { %"class.std::locale::facet.base", [4 x i8] }

@_ZStL8__ioinit = internal global %"class.std::ios_base::Init" zeroinitializer, align 1
@__dso_handle = external hidden global i8
@_ZSt3cin = external global %"class.std::basic_istream", align 8
@_ZSt4cout = external global %"class.std::basic_ostream", align 8
@llvm.global_ctors = appending global [1 x { i32, void ()*, i8* }] [{ i32, void ()*, i8* } { i32 65535, void ()* @_GLOBAL__sub_I_1403.cpp, i8* null }]

declare void @_ZNSt8ios_base4InitC1Ev(%"class.std::ios_base::Init"* nonnull align 1 dereferenceable(1)) unnamed_addr #0

; Function Attrs: nounwind
declare void @_ZNSt8ios_base4InitD1Ev(%"class.std::ios_base::Init"* nonnull align 1 dereferenceable(1)) unnamed_addr #1

; Function Attrs: nofree nounwind
declare i32 @__cxa_atexit(void (i8*)*, i8*, i8*) local_unnamed_addr #2

; Function Attrs: mustprogress norecurse sspstrong uwtable
define dso_local i32 @main() local_unnamed_addr #3 {
  %1 = alloca i8, align 1
  %2 = alloca i8, align 1
  %3 = alloca [530 x i8], align 16
  %4 = getelementptr inbounds [530 x i8], [530 x i8]* %3, i64 0, i64 0
  call void @llvm.lifetime.start.p0i8(i64 530, i8* nonnull %4) #8
  call void @_ZSt17__istream_extractRSiPcl(%"class.std::basic_istream"* nonnull align 8 dereferenceable(16) @_ZSt3cin, i8* nonnull %4, i64 530)
  %5 = call i64 @strlen(i8* noundef nonnull %4) #9
  %6 = trunc i64 %5 to i32
  %7 = icmp slt i32 %6, 2
  br i1 %7, label %111, label %8

8:                                                ; preds = %0
  %9 = add i64 %5, 1
  %10 = and i64 %9, 4294967295
  %11 = and i64 %5, 4294967295
  br label %12

12:                                               ; preds = %8, %106
  %13 = phi i64 [ 2, %8 ], [ %107, %106 ]
  %14 = phi i64 [ 1, %8 ], [ %108, %106 ]
  %15 = trunc i64 %14 to i32
  %16 = trunc i64 %13 to i32
  br label %17

17:                                               ; preds = %12, %85
  %18 = phi i32 [ %15, %12 ], [ %88, %85 ]
  %19 = phi i64 [ 0, %12 ], [ %86, %85 ]
  %20 = phi i32 [ 0, %12 ], [ %87, %85 ]
  %21 = add nuw nsw i64 %19, %13
  %22 = add nuw nsw i32 %20, %16
  %23 = add nsw i64 %21, -1
  %24 = add nsw i32 %22, -1
  %25 = sext i32 %24 to i64
  %26 = icmp slt i64 %19, %25
  br i1 %26, label %98, label %33

27:                                               ; preds = %90
  %28 = getelementptr inbounds [530 x i8], [530 x i8]* %3, i64 0, i64 %93
  %29 = load i8, i8* %28, align 1, !tbaa !5
  %30 = getelementptr inbounds [530 x i8], [530 x i8]* %3, i64 0, i64 %94
  %31 = load i8, i8* %30, align 1, !tbaa !5
  %32 = icmp eq i8 %29, %31
  br i1 %32, label %90, label %33, !llvm.loop !8

33:                                               ; preds = %90, %27, %98, %17
  %34 = phi i64 [ %21, %17 ], [ %21, %98 ], [ %91, %27 ], [ %91, %90 ]
  %35 = phi i64 [ %19, %17 ], [ %19, %98 ], [ %93, %27 ], [ %93, %90 ]
  %36 = phi i64 [ %23, %17 ], [ %23, %98 ], [ %94, %27 ], [ %94, %90 ]
  %37 = trunc i64 %35 to i32
  %38 = trunc i64 %36 to i32
  %39 = trunc i64 %34 to i32
  %40 = icmp ne i32 %37, %38
  %41 = icmp slt i32 %37, %39
  %42 = and i1 %40, %41
  br i1 %42, label %85, label %77

43:                                               ; preds = %77
  %44 = add nuw i64 %14, %19
  %45 = and i64 %44, 4294967295
  %46 = getelementptr inbounds [530 x i8], [530 x i8]* %3, i64 0, i64 %45
  %47 = load i8, i8* %46, align 1, !tbaa !5
  call void @llvm.lifetime.start.p0i8(i64 1, i8* nonnull %1)
  store i8 %47, i8* %1, align 1, !tbaa !5
  %48 = call nonnull align 8 dereferenceable(8) %"class.std::basic_ostream"* @_ZSt16__ostream_insertIcSt11char_traitsIcEERSt13basic_ostreamIT_T0_ES6_PKS3_l(%"class.std::basic_ostream"* nonnull align 8 dereferenceable(8) @_ZSt4cout, i8* nonnull %1, i64 1)
  call void @llvm.lifetime.end.p0i8(i64 1, i8* nonnull %1)
  %49 = bitcast %"class.std::basic_ostream"* %48 to i8**
  %50 = load i8*, i8** %49, align 8, !tbaa !10
  %51 = getelementptr i8, i8* %50, i64 -24
  %52 = bitcast i8* %51 to i64*
  %53 = load i64, i64* %52, align 8
  %54 = bitcast %"class.std::basic_ostream"* %48 to i8*
  %55 = add nsw i64 %53, 240
  %56 = getelementptr inbounds i8, i8* %54, i64 %55
  %57 = bitcast i8* %56 to %"class.std::ctype"**
  %58 = load %"class.std::ctype"*, %"class.std::ctype"** %57, align 8, !tbaa !12
  %59 = icmp eq %"class.std::ctype"* %58, null
  br i1 %59, label %110, label %60

60:                                               ; preds = %43
  %61 = getelementptr inbounds %"class.std::ctype", %"class.std::ctype"* %58, i64 0, i32 8
  %62 = load i8, i8* %61, align 8, !tbaa !16
  %63 = icmp eq i8 %62, 0
  br i1 %63, label %67, label %64

64:                                               ; preds = %60
  %65 = getelementptr inbounds %"class.std::ctype", %"class.std::ctype"* %58, i64 0, i32 9, i64 10
  %66 = load i8, i8* %65, align 1, !tbaa !5
  br label %73

67:                                               ; preds = %60
  call void @_ZNKSt5ctypeIcE13_M_widen_initEv(%"class.std::ctype"* nonnull align 8 dereferenceable(570) %58)
  %68 = bitcast %"class.std::ctype"* %58 to i8 (%"class.std::ctype"*, i8)***
  %69 = load i8 (%"class.std::ctype"*, i8)**, i8 (%"class.std::ctype"*, i8)*** %68, align 8, !tbaa !10
  %70 = getelementptr inbounds i8 (%"class.std::ctype"*, i8)*, i8 (%"class.std::ctype"*, i8)** %69, i64 6
  %71 = load i8 (%"class.std::ctype"*, i8)*, i8 (%"class.std::ctype"*, i8)** %70, align 8
  %72 = call signext i8 %71(%"class.std::ctype"* nonnull align 8 dereferenceable(570) %58, i8 signext 10)
  br label %73

73:                                               ; preds = %67, %64
  %74 = phi i8 [ %66, %64 ], [ %72, %67 ]
  %75 = call nonnull align 8 dereferenceable(8) %"class.std::basic_ostream"* @_ZNSo3putEc(%"class.std::basic_ostream"* nonnull align 8 dereferenceable(8) %48, i8 signext %74)
  %76 = call nonnull align 8 dereferenceable(8) %"class.std::basic_ostream"* @_ZNSo5flushEv(%"class.std::basic_ostream"* nonnull align 8 dereferenceable(8) %75)
  br label %85

77:                                               ; preds = %33, %77
  %78 = phi i64 [ %83, %77 ], [ 0, %33 ]
  %79 = add nuw nsw i64 %78, %19
  %80 = getelementptr inbounds [530 x i8], [530 x i8]* %3, i64 0, i64 %79
  %81 = load i8, i8* %80, align 1, !tbaa !5
  call void @llvm.lifetime.start.p0i8(i64 1, i8* nonnull %2)
  store i8 %81, i8* %2, align 1, !tbaa !5
  %82 = call nonnull align 8 dereferenceable(8) %"class.std::basic_ostream"* @_ZSt16__ostream_insertIcSt11char_traitsIcEERSt13basic_ostreamIT_T0_ES6_PKS3_l(%"class.std::basic_ostream"* nonnull align 8 dereferenceable(8) @_ZSt4cout, i8* nonnull %2, i64 1)
  call void @llvm.lifetime.end.p0i8(i64 1, i8* nonnull %2)
  %83 = add nuw nsw i64 %78, 1
  %84 = icmp eq i64 %83, %14
  br i1 %84, label %43, label %77, !llvm.loop !18

85:                                               ; preds = %73, %33
  %86 = add nuw nsw i64 %19, 1
  %87 = add nuw nsw i32 %20, 1
  %88 = add nuw i32 %18, 1
  %89 = icmp eq i64 %86, %11
  br i1 %89, label %106, label %17, !llvm.loop !19

90:                                               ; preds = %104, %27
  %91 = phi i64 [ %94, %27 ], [ %105, %104 ]
  %92 = phi i64 [ %93, %27 ], [ %19, %104 ]
  %93 = add nuw nsw i64 %92, 1
  %94 = add nsw i64 %91, -1
  %95 = shl i64 %93, 32
  %96 = ashr exact i64 %95, 32
  %97 = icmp slt i64 %96, %94
  br i1 %97, label %27, label %33, !llvm.loop !8

98:                                               ; preds = %17
  %99 = getelementptr inbounds [530 x i8], [530 x i8]* %3, i64 0, i64 %19
  %100 = load i8, i8* %99, align 1, !tbaa !5
  %101 = getelementptr inbounds [530 x i8], [530 x i8]* %3, i64 0, i64 %23
  %102 = load i8, i8* %101, align 1, !tbaa !5
  %103 = icmp eq i8 %100, %102
  br i1 %103, label %104, label %33

104:                                              ; preds = %98
  %105 = sext i32 %18 to i64
  br label %90

106:                                              ; preds = %85
  %107 = add nuw nsw i64 %13, 1
  %108 = add nuw nsw i64 %14, 1
  %109 = icmp eq i64 %107, %10
  br i1 %109, label %111, label %12, !llvm.loop !20

110:                                              ; preds = %43
  call void @_ZSt16__throw_bad_castv() #10
  unreachable

111:                                              ; preds = %106, %0
  call void @llvm.lifetime.end.p0i8(i64 530, i8* nonnull %4) #8
  ret i32 0
}

; Function Attrs: argmemonly mustprogress nofree nosync nounwind willreturn
declare void @llvm.lifetime.start.p0i8(i64 immarg, i8* nocapture) #4

; Function Attrs: argmemonly mustprogress nofree nounwind readonly willreturn
declare i64 @strlen(i8* nocapture) local_unnamed_addr #5

; Function Attrs: argmemonly mustprogress nofree nosync nounwind willreturn
declare void @llvm.lifetime.end.p0i8(i64 immarg, i8* nocapture) #4

declare void @_ZSt17__istream_extractRSiPcl(%"class.std::basic_istream"* nonnull align 8 dereferenceable(16), i8*, i64) local_unnamed_addr #0

declare nonnull align 8 dereferenceable(8) %"class.std::basic_ostream"* @_ZSt16__ostream_insertIcSt11char_traitsIcEERSt13basic_ostreamIT_T0_ES6_PKS3_l(%"class.std::basic_ostream"* nonnull align 8 dereferenceable(8), i8*, i64) local_unnamed_addr #0

declare nonnull align 8 dereferenceable(8) %"class.std::basic_ostream"* @_ZNSo3putEc(%"class.std::basic_ostream"* nonnull align 8 dereferenceable(8), i8 signext) local_unnamed_addr #0

declare nonnull align 8 dereferenceable(8) %"class.std::basic_ostream"* @_ZNSo5flushEv(%"class.std::basic_ostream"* nonnull align 8 dereferenceable(8)) local_unnamed_addr #0

; Function Attrs: noreturn
declare void @_ZSt16__throw_bad_castv() local_unnamed_addr #6

declare void @_ZNKSt5ctypeIcE13_M_widen_initEv(%"class.std::ctype"* nonnull align 8 dereferenceable(570)) local_unnamed_addr #0

; Function Attrs: sspstrong uwtable
define internal void @_GLOBAL__sub_I_1403.cpp() #7 section ".text.startup" {
  tail call void @_ZNSt8ios_base4InitC1Ev(%"class.std::ios_base::Init"* nonnull align 1 dereferenceable(1) @_ZStL8__ioinit)
  %1 = tail call i32 @__cxa_atexit(void (i8*)* bitcast (void (%"class.std::ios_base::Init"*)* @_ZNSt8ios_base4InitD1Ev to void (i8*)*), i8* getelementptr inbounds (%"class.std::ios_base::Init", %"class.std::ios_base::Init"* @_ZStL8__ioinit, i64 0, i32 0), i8* nonnull @__dso_handle) #8
  ret void
}


!llvm.module.flags = !{!0, !1, !2, !3}
!llvm.ident = !{!4}

!0 = !{i32 1, !"wchar_size", i32 4}
!1 = !{i32 7, !"PIC Level", i32 2}
!2 = !{i32 7, !"PIE Level", i32 2}
!3 = !{i32 7, !"uwtable", i32 1}
!4 = !{!"clang version 13.0.0"}
!5 = !{!6, !6, i64 0}
!6 = !{!"omnipotent char", !7, i64 0}
!7 = !{!"Simple C++ TBAA"}
!8 = distinct !{!8, !9}
!9 = !{!"llvm.loop.mustprogress"}
!10 = !{!11, !11, i64 0}
!11 = !{!"vtable pointer", !7, i64 0}
!12 = !{!13, !14, i64 240}
!13 = !{!"_ZTSSt9basic_iosIcSt11char_traitsIcEE", !14, i64 216, !6, i64 224, !15, i64 225, !14, i64 232, !14, i64 240, !14, i64 248, !14, i64 256}
!14 = !{!"any pointer", !6, i64 0}
!15 = !{!"bool", !6, i64 0}
!16 = !{!17, !6, i64 56}
!17 = !{!"_ZTSSt5ctypeIcE", !14, i64 16, !15, i64 24, !14, i64 32, !14, i64 40, !14, i64 48, !6, i64 56, !6, i64 57, !6, i64 313, !6, i64 569}
!18 = distinct !{!18, !9}
!19 = distinct !{!19, !9}
!20 = distinct !{!20, !9}
